target datalayout = "e-m:e-p270:32:32-p271:32:32-p272:64:64-i64:64-i128:128-f80:128-n8:16:32:64-S128"
target triple = "x86_64-pc-linux-gnu"

%struct.h5dump_table_list_t = type { i64, i64, ptr }
%struct.h5dump_table_items_t = type { i64, i64, ptr, ptr, ptr }

@table_list = dso_local global %struct.h5dump_table_list_t zeroinitializer, align 8

; Function Attrs: nounwind uwtable
define internal void @table_list_free() #0 {
  %1 = alloca i64, align 8
  store i64 0, ptr %1, align 8
  br label %2

2:                                                ; preds = %31, %0
  %3 = load i64, ptr %1, align 8
  %4 = load i64, ptr getelementptr inbounds (%struct.h5dump_table_list_t, ptr @table_list, i32 0, i32 1), align 8
  %5 = icmp ult i64 %3, %4
  br i1 %5, label %6, label %34

6:                                                ; preds = %2
  %7 = load ptr, ptr getelementptr inbounds (%struct.h5dump_table_list_t, ptr @table_list, i32 0, i32 2), align 8
  %8 = load i64, ptr %1, align 8
  %9 = getelementptr inbounds %struct.h5dump_table_items_t, ptr %7, i64 %8
  %10 = getelementptr inbounds %struct.h5dump_table_items_t, ptr %9, i32 0, i32 1
  %11 = load i64, ptr %10, align 8
  %12 = call i32 @H5Idec_ref(i64 noundef %11)
  %13 = icmp slt i32 %12, 0
  br i1 %13, label %14, label %15

14:                                               ; preds = %6
  call void @h5tools_setstatus(i32 noundef 1)
  br label %15

15:                                               ; preds = %14, %6
  %16 = load ptr, ptr getelementptr inbounds (%struct.h5dump_table_list_t, ptr @table_list, i32 0, i32 2), align 8
  %17 = load i64, ptr %1, align 8
  %18 = getelementptr inbounds %struct.h5dump_table_items_t, ptr %16, i64 %17
  %19 = getelementptr inbounds %struct.h5dump_table_items_t, ptr %18, i32 0, i32 2
  %20 = load ptr, ptr %19, align 8
  call void @free_table(ptr noundef %20)
  %21 = load ptr, ptr getelementptr inbounds (%struct.h5dump_table_list_t, ptr @table_list, i32 0, i32 2), align 8
  %22 = load i64, ptr %1, align 8
  %23 = getelementptr inbounds %struct.h5dump_table_items_t, ptr %21, i64 %22
  %24 = getelementptr inbounds %struct.h5dump_table_items_t, ptr %23, i32 0, i32 3
  %25 = load ptr, ptr %24, align 8
  call void @free_table(ptr noundef %25)
  %26 = load ptr, ptr getelementptr inbounds (%struct.h5dump_table_list_t, ptr @table_list, i32 0, i32 2), align 8
  %27 = load i64, ptr %1, align 8
  %28 = getelementptr inbounds %struct.h5dump_table_items_t, ptr %26, i64 %27
  %29 = getelementptr inbounds %struct.h5dump_table_items_t, ptr %28, i32 0, i32 4
  %30 = load ptr, ptr %29, align 8
  call void @free_table(ptr noundef %30)
  br label %31

31:                                               ; preds = %15
  %32 = load i64, ptr %1, align 8
  %33 = add i64 %32, 1
  store i64 %33, ptr %1, align 8
  br label %2

34:                                               ; preds = %2
  %35 = load ptr, ptr getelementptr inbounds (%struct.h5dump_table_list_t, ptr @table_list, i32 0, i32 2), align 8
  call void @free(ptr noundef %35) #11
  store ptr null, ptr getelementptr inbounds (%struct.h5dump_table_list_t, ptr @table_list, i32 0, i32 2), align 8
  store i64 0, ptr getelementptr inbounds (%struct.h5dump_table_list_t, ptr @table_list, i32 0, i32 1), align 8
  store i64 0, ptr @table_list, align 8
  ret void
}