; Function Attrs: nounwind uwtable
define internal fastcc void @table_list_free() unnamed_addr #0 {
  %1 = load i64, ptr getelementptr inbounds (i8, ptr @table_list, i64 8), align 8
  %.not = icmp eq i64 %1, 0
  br i1 %.not, label %._crit_edge, label %.lr.ph

.lr.ph:                                           ; preds = %0, %8
  %.06 = phi i64 [ %18, %8 ], [ 0, %0 ]
  %2 = load ptr, ptr getelementptr inbounds (i8, ptr @table_list, i64 16), align 8
  %3 = getelementptr inbounds %struct.h5dump_table_items_t, ptr %2, i64 %.06, i32 1
  %4 = load i64, ptr %3, align 8
  %5 = tail call i32 @H5Idec_ref(i64 noundef %4) #22
  %6 = icmp slt i32 %5, 0
  br i1 %6, label %7, label %8

7:                                                ; preds = %.lr.ph
  tail call void @h5tools_setstatus(i32 noundef 1) #22
  br label %8

8:                                                ; preds = %7, %.lr.ph
  %9 = load ptr, ptr getelementptr inbounds (i8, ptr @table_list, i64 16), align 8
  %10 = getelementptr inbounds %struct.h5dump_table_items_t, ptr %9, i64 %.06, i32 2
  %11 = load ptr, ptr %10, align 8
  tail call void @free_table(ptr noundef %11) #22
  %12 = load ptr, ptr getelementptr inbounds (i8, ptr @table_list, i64 16), align 8
  %13 = getelementptr inbounds %struct.h5dump_table_items_t, ptr %12, i64 %.06, i32 3
  %14 = load ptr, ptr %13, align 8
  tail call void @free_table(ptr noundef %14) #22
  %15 = load ptr, ptr getelementptr inbounds (i8, ptr @table_list, i64 16), align 8
  %16 = getelementptr inbounds %struct.h5dump_table_items_t, ptr %15, i64 %.06, i32 4
  %17 = load ptr, ptr %16, align 8
  tail call void @free_table(ptr noundef %17) #22
  %18 = add nuw i64 %.06, 1
  %19 = load i64, ptr getelementptr inbounds (i8, ptr @table_list, i64 8), align 8
  %20 = icmp ult i64 %18, %19
  br i1 %20, label %.lr.ph, label %._crit_edge

._crit_edge:                                      ; preds = %8, %0
  %21 = load ptr, ptr getelementptr inbounds (i8, ptr @table_list, i64 16), align 8
  tail call void @free(ptr noundef %21) #22
  tail call void @llvm.memset.p0.i64(ptr noundef nonnull align 8 dereferenceable(24) @table_list, i8 0, i64 24, i1 false)
  ret void
}